target datalayout = "e-m:e-p270:32:32-p271:32:32-p272:64:64-i64:64-i128:128-f80:128-n8:16:32:64-S128"
target triple = "x86_64-pc-linux-gnu"

; Function Attrs: mustprogress nounwind uwtable
define noundef i32 @_Z8tolowerwi(i32 noundef %0) #1 {
  %2 = alloca i32, align 4
  store i32 %0, ptr %2, align 4
  %3 = load i32, ptr %2, align 4
  %4 = call i32 @towlower(i32 noundef %3) #6
  ret i32 %4
}

; Function Attrs: mustprogress uwtable
define noundef ptr @_Z10wcscasestrPKwS0_(ptr noundef %0, ptr noundef %1) #0 {
  %3 = alloca ptr, align 8
  %4 = alloca ptr, align 8
  %5 = alloca ptr, align 8
  %6 = alloca i64, align 8
  %7 = alloca i64, align 8
  store ptr %0, ptr %4, align 8
  store ptr %1, ptr %5, align 8
  store i64 0, ptr %6, align 8
  br label %8

8:                                                ; preds = %45, %2
  %9 = load ptr, ptr %4, align 8
  %10 = load i64, ptr %6, align 8
  %11 = getelementptr inbounds i32, ptr %9, i64 %10
  %12 = load i32, ptr %11, align 4
  %13 = icmp ne i32 %12, 0
  br i1 %13, label %14, label %48

14:                                               ; preds = %8
  store i64 0, ptr %7, align 8
  br label %15

15:                                               ; preds = %41, %14
  %16 = load ptr, ptr %5, align 8
  %17 = load i64, ptr %7, align 8
  %18 = getelementptr inbounds i32, ptr %16, i64 %17
  %19 = load i32, ptr %18, align 4
  %20 = icmp eq i32 %19, 0
  br i1 %20, label %21, label %25

21:                                               ; preds = %15
  %22 = load ptr, ptr %4, align 8
  %23 = load i64, ptr %6, align 8
  %24 = getelementptr inbounds i32, ptr %22, i64 %23
  store ptr %24, ptr %3, align 8
  br label %49

25:                                               ; preds = %15
  %26 = load ptr, ptr %4, align 8
  %27 = load i64, ptr %6, align 8
  %28 = load i64, ptr %7, align 8
  %29 = add i64 %27, %28
  %30 = getelementptr inbounds i32, ptr %26, i64 %29
  %31 = load i32, ptr %30, align 4
  %32 = call noundef i32 @_Z8tolowerwi(i32 noundef %31)
  %33 = load ptr, ptr %5, align 8
  %34 = load i64, ptr %7, align 8
  %35 = getelementptr inbounds i32, ptr %33, i64 %34
  %36 = load i32, ptr %35, align 4
  %37 = call noundef i32 @_Z8tolowerwi(i32 noundef %36)
  %38 = icmp ne i32 %32, %37
  br i1 %38, label %39, label %40

39:                                               ; preds = %25
  br label %44

40:                                               ; preds = %25
  br label %41

41:                                               ; preds = %40
  %42 = load i64, ptr %7, align 8
  %43 = add i64 %42, 1
  store i64 %43, ptr %7, align 8
  br label %15, !llvm.loop !17

44:                                               ; preds = %39
  br label %45

45:                                               ; preds = %44
  %46 = load i64, ptr %6, align 8
  %47 = add i64 %46, 1
  store i64 %47, ptr %6, align 8
  br label %8, !llvm.loop !18

48:                                               ; preds = %8
  store ptr null, ptr %3, align 8
  br label %49

49:                                               ; preds = %48, %21
  %50 = load ptr, ptr %3, align 8
  ret ptr %50
}