; Function Attrs: mustprogress nounwind uwtable
define noundef ptr @_Z10wcscasestrPKwS0_(ptr noundef readonly %0, ptr noundef readonly captures(none) %1) local_unnamed_addr #0 {
  %3 = load i32, ptr %0, align 4
  %.not20 = icmp eq i32 %3, 0
  br i1 %.not20, label %.loopexit, label %.preheader

.preheader:                                       ; preds = %2, %18
  %.01321 = phi i64 [ %19, %18 ], [ 0, %2 ]
  %4 = getelementptr inbounds i32, ptr %0, i64 %.01321
  %5 = load i32, ptr %1, align 4
  %6 = icmp eq i32 %5, 0
  br i1 %6, label %.loopexit, label %.lr.ph

7:                                                ; preds = %.lr.ph
  %8 = add i64 %.018, 1
  %9 = getelementptr inbounds i32, ptr %1, i64 %8
  %10 = load i32, ptr %9, align 4
  %11 = icmp eq i32 %10, 0
  br i1 %11, label %.loopexit, label %.lr.ph, !llvm.loop !17

.lr.ph:                                           ; preds = %.preheader, %7
  %.018 = phi i64 [ %8, %7 ], [ 0, %.preheader ]
  %12 = getelementptr inbounds i32, ptr %1, i64 %.018
  %13 = getelementptr i32, ptr %4, i64 %.018
  %14 = load i32, ptr %13, align 4
  %15 = tail call noundef i32 @towlower(i32 noundef %14) #12
  %16 = load i32, ptr %12, align 4
  %17 = tail call noundef i32 @towlower(i32 noundef %16) #12
  %.not15 = icmp eq i32 %15, %17
  br i1 %.not15, label %7, label %18

18:                                               ; preds = %.lr.ph
  %19 = add i64 %.01321, 1
  %20 = getelementptr inbounds i32, ptr %0, i64 %19
  %21 = load i32, ptr %20, align 4
  %.not = icmp eq i32 %21, 0
  br i1 %.not, label %.loopexit, label %.preheader, !llvm.loop !18

.loopexit:                                        ; preds = %18, %.preheader, %7, %2
  %.014 = phi ptr [ null, %2 ], [ %4, %7 ], [ %4, %.preheader ], [ null, %18 ]
  ret ptr %.014
}